; Function Attrs: nofree norecurse nosync nounwind memory(read, inaccessiblemem: none) uwtable
define dso_local noundef zeroext i1 @list_member_ptr(ptr noundef readonly captures(address_is_null) %0, ptr noundef readnone captures(address) %1) local_unnamed_addr #4 {
  %3 = getelementptr inbounds nuw i8, ptr %0, i64 16
  %.not = icmp eq ptr %0, null
  br i1 %.not, label %.critedge, label %.lr.ph

.lr.ph:                                           ; preds = %2
  %4 = getelementptr inbounds nuw i8, ptr %0, i64 4
  %5 = load i32, ptr %4, align 4
  %6 = icmp sgt i32 %5, 0
  br i1 %6, label %.lr.ph23, label %.critedge

.lr.ph23:                                         ; preds = %.lr.ph
  %7 = load ptr, ptr %3, align 8
  %wide.trip.count = zext nneg i32 %5 to i64
  br label %8

8:                                                ; preds = %8, %.lr.ph23
  %indvars.iv = phi i64 [ 0, %.lr.ph23 ], [ %indvars.iv.next, %8 ]
  %9 = getelementptr inbounds nuw %union.ListCell, ptr %7, i64 %indvars.iv
  %10 = load ptr, ptr %9, align 8
  %11 = icmp eq ptr %10, %1
  %indvars.iv.next = add nuw nsw i64 %indvars.iv, 1
  %exitcond.not = icmp eq i64 %indvars.iv.next, %wide.trip.count
  %or.cond = select i1 %11, i1 true, i1 %exitcond.not
  br i1 %or.cond, label %.critedge, label %8

.critedge:                                        ; preds = %8, %.lr.ph, %2
  %.1 = phi i1 [ false, %2 ], [ false, %.lr.ph ], [ %11, %8 ]
  ret i1 %.1
}